target datalayout = "e-m:e-p270:32:32-p271:32:32-p272:64:64-i64:64-i128:128-f80:128-n8:16:32:64-S128"
target triple = "x86_64-pc-linux-gnu"

%struct.PgStat_EntryRef = type { ptr, ptr, i32, ptr, %struct.dlist_node }
%struct.dlist_node = type { ptr, ptr }
%struct.PgStatShared_Database = type { %struct.PgStatShared_Common, %struct.PgStat_StatDBEntry }
%struct.PgStatShared_Common = type { i32, %struct.LWLock }
%struct.LWLock = type { i16, %struct.pg_atomic_uint32, %struct.proclist_head }
%struct.pg_atomic_uint32 = type { i32 }
%struct.proclist_head = type { i32, i32 }
%struct.PgStat_StatDBEntry = type { i64, i64, i64, i64, i64, i64, i64, i64, i64, i64, i64, i64, i64, i64, i64, i64, i64, i64, i64, i64, i64, i64, i64, i64, i64, i64, i64, i64, i64, i64, i64, i64, i64 }

@MyDatabaseId = external global i32, align 4

; Function Attrs: nounwind uwtable
define dso_local void @pgstat_reset_database_timestamp(i32 noundef %0, i64 noundef %1) #0 {
  %3 = alloca i32, align 4
  %4 = alloca i64, align 8
  %5 = alloca ptr, align 8
  %6 = alloca ptr, align 8
  store i32 %0, ptr %3, align 4
  store i64 %1, ptr %4, align 8
  call void @llvm.lifetime.start.p0(i64 8, ptr %5) #4
  call void @llvm.lifetime.start.p0(i64 8, ptr %6) #4
  %7 = load i32, ptr @MyDatabaseId, align 4
  %8 = call ptr @pgstat_get_entry_ref_locked(i32 noundef 1, i32 noundef %7, i64 noundef 0, i1 noundef zeroext false)
  store ptr %8, ptr %5, align 8
  %9 = load ptr, ptr %5, align 8
  %10 = getelementptr inbounds nuw %struct.PgStat_EntryRef, ptr %9, i32 0, i32 1
  %11 = load ptr, ptr %10, align 8
  store ptr %11, ptr %6, align 8
  %12 = load i64, ptr %4, align 8
  %13 = load ptr, ptr %6, align 8
  %14 = getelementptr inbounds nuw %struct.PgStatShared_Database, ptr %13, i32 0, i32 1
  %15 = getelementptr inbounds nuw %struct.PgStat_StatDBEntry, ptr %14, i32 0, i32 32
  store i64 %12, ptr %15, align 8
  %16 = load ptr, ptr %5, align 8
  call void @pgstat_unlock_entry(ptr noundef %16)
  call void @llvm.lifetime.end.p0(i64 8, ptr %6) #4
  call void @llvm.lifetime.end.p0(i64 8, ptr %5) #4
  ret void
}