; Function Attrs: nounwind uwtable
define dso_local void @pgstat_reset_database_timestamp(i32 noundef %0, i64 noundef %1) local_unnamed_addr #0 {
  %3 = load i32, ptr @MyDatabaseId, align 4
  %4 = tail call ptr @pgstat_get_entry_ref_locked(i32 noundef 1, i32 noundef %3, i64 noundef 0, i1 noundef zeroext false) #6
  %5 = getelementptr inbounds nuw i8, ptr %4, i64 8
  %6 = load ptr, ptr %5, align 8
  %7 = getelementptr inbounds nuw i8, ptr %6, i64 280
  store i64 %1, ptr %7, align 8
  tail call void @pgstat_unlock_entry(ptr noundef %4) #6
  ret void
}